target datalayout = "e-m:e-p270:32:32-p271:32:32-p272:64:64-i64:64-i128:128-f80:128-n8:16:32:64-S128"
target triple = "x86_64-pc-linux-gnu"

%struct.SpecialJoinInfo = type { i32, ptr, ptr, ptr, ptr, i32, i32, ptr, ptr, ptr, ptr, i8, i8, i8, ptr, ptr }

; Function Attrs: nounwind uwtable
define dso_local void @init_dummy_sjinfo(ptr noundef %0, ptr noundef %1, ptr noundef %2) #0 {
  %4 = alloca ptr, align 8
  %5 = alloca ptr, align 8
  %6 = alloca ptr, align 8
  store ptr %0, ptr %4, align 8
  store ptr %1, ptr %5, align 8
  store ptr %2, ptr %6, align 8
  %7 = load ptr, ptr %4, align 8
  %8 = getelementptr inbounds nuw %struct.SpecialJoinInfo, ptr %7, i32 0, i32 0
  store i32 319, ptr %8, align 8
  %9 = load ptr, ptr %5, align 8
  %10 = load ptr, ptr %4, align 8
  %11 = getelementptr inbounds nuw %struct.SpecialJoinInfo, ptr %10, i32 0, i32 1
  store ptr %9, ptr %11, align 8
  %12 = load ptr, ptr %6, align 8
  %13 = load ptr, ptr %4, align 8
  %14 = getelementptr inbounds nuw %struct.SpecialJoinInfo, ptr %13, i32 0, i32 2
  store ptr %12, ptr %14, align 8
  %15 = load ptr, ptr %5, align 8
  %16 = load ptr, ptr %4, align 8
  %17 = getelementptr inbounds nuw %struct.SpecialJoinInfo, ptr %16, i32 0, i32 3
  store ptr %15, ptr %17, align 8
  %18 = load ptr, ptr %6, align 8
  %19 = load ptr, ptr %4, align 8
  %20 = getelementptr inbounds nuw %struct.SpecialJoinInfo, ptr %19, i32 0, i32 4
  store ptr %18, ptr %20, align 8
  %21 = load ptr, ptr %4, align 8
  %22 = getelementptr inbounds nuw %struct.SpecialJoinInfo, ptr %21, i32 0, i32 5
  store i32 0, ptr %22, align 8
  %23 = load ptr, ptr %4, align 8
  %24 = getelementptr inbounds nuw %struct.SpecialJoinInfo, ptr %23, i32 0, i32 6
  store i32 0, ptr %24, align 4
  %25 = load ptr, ptr %4, align 8
  %26 = getelementptr inbounds nuw %struct.SpecialJoinInfo, ptr %25, i32 0, i32 7
  store ptr null, ptr %26, align 8
  %27 = load ptr, ptr %4, align 8
  %28 = getelementptr inbounds nuw %struct.SpecialJoinInfo, ptr %27, i32 0, i32 8
  store ptr null, ptr %28, align 8
  %29 = load ptr, ptr %4, align 8
  %30 = getelementptr inbounds nuw %struct.SpecialJoinInfo, ptr %29, i32 0, i32 9
  store ptr null, ptr %30, align 8
  %31 = load ptr, ptr %4, align 8
  %32 = getelementptr inbounds nuw %struct.SpecialJoinInfo, ptr %31, i32 0, i32 10
  store ptr null, ptr %32, align 8
  %33 = load ptr, ptr %4, align 8
  %34 = getelementptr inbounds nuw %struct.SpecialJoinInfo, ptr %33, i32 0, i32 11
  store i8 0, ptr %34, align 8
  %35 = load ptr, ptr %4, align 8
  %36 = getelementptr inbounds nuw %struct.SpecialJoinInfo, ptr %35, i32 0, i32 12
  store i8 0, ptr %36, align 1
  %37 = load ptr, ptr %4, align 8
  %38 = getelementptr inbounds nuw %struct.SpecialJoinInfo, ptr %37, i32 0, i32 13
  store i8 0, ptr %38, align 2
  %39 = load ptr, ptr %4, align 8
  %40 = getelementptr inbounds nuw %struct.SpecialJoinInfo, ptr %39, i32 0, i32 14
  store ptr null, ptr %40, align 8
  %41 = load ptr, ptr %4, align 8
  %42 = getelementptr inbounds nuw %struct.SpecialJoinInfo, ptr %41, i32 0, i32 15
  store ptr null, ptr %42, align 8
  ret void
}